; Function Attrs: mustprogress uwtable
define internal void @_ZN12_GLOBAL__N_113code_tree_map13mk_tree_trail4undoEv(ptr nocapture noundef nonnull readonly align 8 dereferenceable(20) %this) unnamed_addr #3 align 2 personality ptr @__gxx_personality_v0 {
entry:
  %m_trees = getelementptr inbounds i8, ptr %this, i64 8
  %0 = load ptr, ptr %m_trees, align 8
  %m_lbl_id = getelementptr inbounds i8, ptr %this, i64 16
  %1 = load i32, ptr %m_lbl_id, align 8
  %.val1 = load ptr, ptr %0, align 8
  %idxprom.i = zext i32 %1 to i64
  %arrayidx.i = getelementptr inbounds ptr, ptr %.val1, i64 %idxprom.i
  %2 = load ptr, ptr %arrayidx.i, align 8
  %cmp.i = icmp eq ptr %2, null
  br i1 %cmp.i, label %_Z7deallocIN12_GLOBAL__N_19code_treeEEvPT_.exit, label %if.end.i

if.end.i:                                         ; preds = %entry
  %3 = getelementptr i8, ptr %2, i64 40
  %ptr.val.i = load ptr, ptr %3, align 8
  %tobool.not.i.i.i.i.i = icmp eq ptr %ptr.val.i, null
  br i1 %tobool.not.i.i.i.i.i, label %_ZN12_GLOBAL__N_19code_treeD2Ev.exit.i, label %if.then.i.i.i.i.i

if.then.i.i.i.i.i:                                ; preds = %if.end.i
  %add.ptr.i.i.i.i.i.i = getelementptr inbounds i8, ptr %ptr.val.i, i64 -8
  invoke void @_ZN6memory10deallocateEPv(ptr noundef nonnull %add.ptr.i.i.i.i.i.i)
          to label %_ZN12_GLOBAL__N_19code_treeD2Ev.exit.i unwind label %terminate.lpad.i.i.i.i

terminate.lpad.i.i.i.i:                           ; preds = %if.then.i.i.i.i.i
  %4 = landingpad { ptr, i32 }
          catch ptr null
  %5 = extractvalue { ptr, i32 } %4, 0
  tail call void @__clang_call_terminate(ptr %5) #22
  unreachable

_ZN12_GLOBAL__N_19code_treeD2Ev.exit.i:           ; preds = %if.then.i.i.i.i.i, %if.end.i
  tail call void @_ZN6memory10deallocateEPv(ptr noundef nonnull %2)
  %.pre = load ptr, ptr %m_trees, align 8
  %.pre4 = load i32, ptr %m_lbl_id, align 8
  %.val.pre = load ptr, ptr %.pre, align 8
  %.pre6 = zext i32 %.pre4 to i64
  br label %_Z7deallocIN12_GLOBAL__N_19code_treeEEvPT_.exit

_Z7deallocIN12_GLOBAL__N_19code_treeEEvPT_.exit:  ; preds = %entry, %_ZN12_GLOBAL__N_19code_treeD2Ev.exit.i
  %idxprom.i2.pre-phi = phi i64 [ %idxprom.i, %entry ], [ %.pre6, %_ZN12_GLOBAL__N_19code_treeD2Ev.exit.i ]
  %.val = phi ptr [ %.val1, %entry ], [ %.val.pre, %_ZN12_GLOBAL__N_19code_treeD2Ev.exit.i ]
  %arrayidx.i3 = getelementptr inbounds ptr, ptr %.val, i64 %idxprom.i2.pre-phi
  store ptr null, ptr %arrayidx.i3, align 8
  ret void
}